target datalayout = "e-m:e-p270:32:32-p271:32:32-p272:64:64-i64:64-i128:128-f80:128-n8:16:32:64-S128"
target triple = "x86_64-pc-linux-gnu"

; Function Attrs: mustprogress nounwind uwtable
define linkonce_odr hidden noundef i64 @_ZNK6Method25compiled_invocation_countEv(ptr noundef nonnull align 8 dereferenceable(88) %0) #1 comdat align 2 {
  %2 = alloca ptr, align 8
  store ptr %0, ptr %2, align 8
  ret i64 0
}

; Function Attrs: mustprogress nounwind uwtable
define internal noundef i32 @_ZL15compare_methodsPP6MethodS1_(ptr noundef %0, ptr noundef %1) #1 {
  %3 = alloca ptr, align 8
  %4 = alloca ptr, align 8
  %5 = alloca i64, align 8
  store ptr %0, ptr %3, align 8
  store ptr %1, ptr %4, align 8
  %6 = load ptr, ptr %4, align 8
  %7 = load ptr, ptr %6, align 8
  %8 = call noundef i32 @_ZNK6Method16invocation_countEv(ptr noundef nonnull align 8 dereferenceable(88) %7)
  %9 = sext i32 %8 to i64
  %10 = load ptr, ptr %4, align 8
  %11 = load ptr, ptr %10, align 8
  %12 = call noundef i64 @_ZNK6Method25compiled_invocation_countEv(ptr noundef nonnull align 8 dereferenceable(88) %11)
  %13 = add nsw i64 %9, %12
  %14 = load ptr, ptr %3, align 8
  %15 = load ptr, ptr %14, align 8
  %16 = call noundef i32 @_ZNK6Method16invocation_countEv(ptr noundef nonnull align 8 dereferenceable(88) %15)
  %17 = sext i32 %16 to i64
  %18 = load ptr, ptr %3, align 8
  %19 = load ptr, ptr %18, align 8
  %20 = call noundef i64 @_ZNK6Method25compiled_invocation_countEv(ptr noundef nonnull align 8 dereferenceable(88) %19)
  %21 = add nsw i64 %17, %20
  %22 = sub nsw i64 %13, %21
  store i64 %22, ptr %5, align 8
  %23 = load i64, ptr %5, align 8
  %24 = icmp slt i64 %23, 0
  br i1 %24, label %25, label %26

25:                                               ; preds = %2
  br label %30

26:                                               ; preds = %2
  %27 = load i64, ptr %5, align 8
  %28 = icmp sgt i64 %27, 0
  %29 = select i1 %28, i32 1, i32 0
  br label %30

30:                                               ; preds = %26, %25
  %31 = phi i32 [ -1, %25 ], [ %29, %26 ]
  ret i32 %31
}