; Function Attrs: mustprogress nounwind uwtable
define internal noundef range(i32 -1, 2) i32 @_ZL15compare_methodsPP6MethodS1_(ptr nocapture noundef readonly %0, ptr nocapture noundef readonly %1) #0 {
  %3 = load ptr, ptr %1, align 8
  %4 = tail call noundef i32 @_ZNK6Method16invocation_countEv(ptr noundef nonnull align 8 dereferenceable(88) %3) #17
  %5 = load ptr, ptr %0, align 8
  %6 = tail call noundef i32 @_ZNK6Method16invocation_countEv(ptr noundef nonnull align 8 dereferenceable(88) %5) #17
  %7 = icmp slt i32 %4, %6
  %8 = icmp ne i32 %4, %6
  %9 = zext i1 %8 to i32
  %10 = select i1 %7, i32 -1, i32 %9
  ret i32 %10
}